target datalayout = "e-m:e-p270:32:32-p271:32:32-p272:64:64-i64:64-i128:128-f80:128-n8:16:32:64-S128"
target triple = "x86_64-pc-linux-gnu"

%struct.ndef_aux_st = type { ptr, ptr, ptr, ptr, ptr, ptr }

@.str = private unnamed_addr constant [34 x i8] c"../openssl/crypto/asn1/bio_ndef.c\00", align 1

; Function Attrs: nounwind uwtable
define internal i32 @ndef_prefix_free(ptr noundef %0, ptr noundef %1, ptr noundef %2, ptr noundef %3) #0 {
  %5 = alloca i32, align 4
  %6 = alloca ptr, align 8
  %7 = alloca ptr, align 8
  %8 = alloca ptr, align 8
  %9 = alloca ptr, align 8
  %10 = alloca ptr, align 8
  %11 = alloca i32, align 4
  store ptr %0, ptr %6, align 8, !tbaa !3
  store ptr %1, ptr %7, align 8, !tbaa !35
  store ptr %2, ptr %8, align 8, !tbaa !36
  store ptr %3, ptr %9, align 8, !tbaa !38
  call void @llvm.lifetime.start.p0(i64 8, ptr %10) #3
  %12 = load ptr, ptr %9, align 8, !tbaa !38
  %13 = icmp eq ptr %12, null
  br i1 %13, label %14, label %15

14:                                               ; preds = %4
  store i32 0, ptr %5, align 4
  store i32 1, ptr %11, align 4
  br label %29

15:                                               ; preds = %4
  %16 = load ptr, ptr %9, align 8, !tbaa !38
  %17 = load ptr, ptr %16, align 8, !tbaa !12
  store ptr %17, ptr %10, align 8, !tbaa !12
  %18 = load ptr, ptr %10, align 8, !tbaa !12
  %19 = icmp eq ptr %18, null
  br i1 %19, label %20, label %21

20:                                               ; preds = %15
  store i32 0, ptr %5, align 4
  store i32 1, ptr %11, align 4
  br label %29

21:                                               ; preds = %15
  %22 = load ptr, ptr %10, align 8, !tbaa !12
  %23 = getelementptr inbounds nuw %struct.ndef_aux_st, ptr %22, i32 0, i32 5
  %24 = load ptr, ptr %23, align 8, !tbaa !41
  call void @CRYPTO_free(ptr noundef %24, ptr noundef @.str, i32 noundef 171)
  %25 = load ptr, ptr %10, align 8, !tbaa !12
  %26 = getelementptr inbounds nuw %struct.ndef_aux_st, ptr %25, i32 0, i32 5
  store ptr null, ptr %26, align 8, !tbaa !41
  %27 = load ptr, ptr %7, align 8, !tbaa !35
  store ptr null, ptr %27, align 8, !tbaa !40
  %28 = load ptr, ptr %8, align 8, !tbaa !36
  store i32 0, ptr %28, align 4, !tbaa !39
  store i32 1, ptr %5, align 4
  store i32 1, ptr %11, align 4
  br label %29

29:                                               ; preds = %21, %20, %14
  call void @llvm.lifetime.end.p0(i64 8, ptr %10) #3
  %30 = load i32, ptr %5, align 4
  ret i32 %30
}

; Function Attrs: nounwind uwtable
define internal i32 @ndef_suffix_free(ptr noundef %0, ptr noundef %1, ptr noundef %2, ptr noundef %3) #0 {
  %5 = alloca i32, align 4
  %6 = alloca ptr, align 8
  %7 = alloca ptr, align 8
  %8 = alloca ptr, align 8
  %9 = alloca ptr, align 8
  %10 = alloca ptr, align 8
  %11 = alloca i32, align 4
  store ptr %0, ptr %6, align 8, !tbaa !3
  store ptr %1, ptr %7, align 8, !tbaa !35
  store ptr %2, ptr %8, align 8, !tbaa !36
  store ptr %3, ptr %9, align 8, !tbaa !38
  call void @llvm.lifetime.start.p0(i64 8, ptr %10) #3
  %12 = load ptr, ptr %9, align 8, !tbaa !38
  store ptr %12, ptr %10, align 8, !tbaa !42
  %13 = load ptr, ptr %6, align 8, !tbaa !3
  %14 = load ptr, ptr %7, align 8, !tbaa !35
  %15 = load ptr, ptr %8, align 8, !tbaa !36
  %16 = load ptr, ptr %9, align 8, !tbaa !38
  %17 = call i32 @ndef_prefix_free(ptr noundef %13, ptr noundef %14, ptr noundef %15, ptr noundef %16)
  %18 = icmp ne i32 %17, 0
  br i1 %18, label %20, label %19

19:                                               ; preds = %4
  store i32 0, ptr %5, align 4
  store i32 1, ptr %11, align 4
  br label %24

20:                                               ; preds = %4
  %21 = load ptr, ptr %10, align 8, !tbaa !42
  %22 = load ptr, ptr %21, align 8, !tbaa !12
  call void @CRYPTO_free(ptr noundef %22, ptr noundef @.str, i32 noundef 185)
  %23 = load ptr, ptr %10, align 8, !tbaa !42
  store ptr null, ptr %23, align 8, !tbaa !12
  store i32 1, ptr %5, align 4
  store i32 1, ptr %11, align 4
  br label %24

24:                                               ; preds = %20, %19
  call void @llvm.lifetime.end.p0(i64 8, ptr %10) #3
  %25 = load i32, ptr %5, align 4
  ret i32 %25
}