; Function Attrs: nounwind uwtable
define internal range(i32 0, 2) i32 @ndef_suffix_free(ptr readnone captures(none) %0, ptr noundef writeonly captures(none) %1, ptr noundef writeonly captures(none) %2, ptr noundef captures(address_is_null) %3) #0 {
  %5 = icmp eq ptr %3, null
  br i1 %5, label %ndef_prefix_free.exit.thread, label %6

6:                                                ; preds = %4
  %7 = load ptr, ptr %3, align 8, !tbaa !29
  %8 = icmp eq ptr %7, null
  br i1 %8, label %ndef_prefix_free.exit.thread, label %9

9:                                                ; preds = %6
  %10 = getelementptr inbounds nuw i8, ptr %7, i64 40
  %11 = load ptr, ptr %10, align 8, !tbaa !32
  tail call void @CRYPTO_free(ptr noundef %11, ptr noundef nonnull @.str, i32 noundef 171) #4
  store ptr null, ptr %10, align 8, !tbaa !32
  store ptr null, ptr %1, align 8, !tbaa !31
  store i32 0, ptr %2, align 4, !tbaa !33
  %12 = load ptr, ptr %3, align 8, !tbaa !29
  tail call void @CRYPTO_free(ptr noundef %12, ptr noundef nonnull @.str, i32 noundef 185) #4
  store ptr null, ptr %3, align 8, !tbaa !29
  br label %ndef_prefix_free.exit.thread

ndef_prefix_free.exit.thread:                     ; preds = %6, %4, %9
  %.0 = phi i32 [ 1, %9 ], [ 0, %4 ], [ 0, %6 ]
  ret i32 %.0
}